; Function Attrs: mustprogress uwtable
define noundef nonnull align 8 dereferenceable(40) ptr @_ZN2cv14getWindowMutexEv() local_unnamed_addr #3 personality ptr @__gxx_personality_v0 {
  %1 = load atomic i8, ptr @_ZGVZN2cv14getWindowMutexEvE14g_window_mutex acquire, align 8
  %2 = icmp eq i8 %1, 0
  br i1 %2, label %3, label %9, !prof !4

3:                                                ; preds = %0
  %4 = tail call i32 @__cxa_guard_acquire(ptr nonnull @_ZGVZN2cv14getWindowMutexEvE14g_window_mutex) #20
  %.not = icmp eq i32 %4, 0
  br i1 %.not, label %9, label %5

5:                                                ; preds = %3
  %6 = invoke noalias noundef nonnull dereferenceable(40) ptr @_Znwm(i64 noundef 40) #21
          to label %7 unwind label %11

7:                                                ; preds = %5
  %8 = getelementptr inbounds i8, ptr %6, i64 16
  tail call void @llvm.memset.p0.i64(ptr noundef nonnull align 8 dereferenceable(40) %6, i8 0, i64 40, i1 false)
  store i32 1, ptr %8, align 8
  store ptr %6, ptr @_ZZN2cv14getWindowMutexEvE14g_window_mutex, align 8
  tail call void @__cxa_guard_release(ptr nonnull @_ZGVZN2cv14getWindowMutexEvE14g_window_mutex) #20
  br label %9

9:                                                ; preds = %7, %3, %0
  %10 = load ptr, ptr @_ZZN2cv14getWindowMutexEvE14g_window_mutex, align 8
  ret ptr %10

11:                                               ; preds = %5
  %12 = landingpad { ptr, i32 }
          cleanup
  tail call void @__cxa_guard_abort(ptr nonnull @_ZGVZN2cv14getWindowMutexEvE14g_window_mutex) #20
  resume { ptr, i32 } %12
}